; Function Attrs: nounwind uwtable
define hidden range(i32 0, 2) i32 @EC_GROUP_get_cofactor(ptr noundef %0, ptr noundef %1, ptr noundef readnone captures(none) %2) local_unnamed_addr #1 {
  %4 = getelementptr inbounds nuw i8, ptr %0, i64 40
  %5 = tail call ptr @BN_copy(ptr noundef %1, ptr noundef nonnull %4) #11
  %.not = icmp eq ptr %5, null
  br i1 %.not, label %9, label %6

6:                                                ; preds = %3
  %7 = tail call i32 @BN_is_zero(ptr noundef nonnull %4) #11
  %.not3 = icmp eq i32 %7, 0
  %8 = zext i1 %.not3 to i32
  br label %9

9:                                                ; preds = %3, %6
  %.0 = phi i32 [ %8, %6 ], [ 0, %3 ]
  ret i32 %.0
}